target datalayout = "e-m:e-p270:32:32-p271:32:32-p272:64:64-i64:64-i128:128-f80:128-n8:16:32:64-S128"
target triple = "x86_64-pc-linux-gnu"

%struct.archive_entry = type { ptr, ptr, i32, %struct.aest, i32, %struct.archive_mstring, i64, i64, %struct.archive_mstring, %struct.archive_mstring, %struct.archive_mstring, %struct.archive_mstring, %struct.archive_mstring, i8, ptr, i64, %struct.ae_digest, %struct.archive_acl, ptr, ptr, ptr, ptr, ptr, [12 x i8], i32 }
%struct.aest = type { i64, i32, i64, i32, i64, i32, i64, i32, i64, i64, i32, i64, i64, i32, i64, i64, i64, i32, i64, i64, i64 }
%struct.archive_mstring = type { %struct.archive_string, %struct.archive_string, %struct.archive_wstring, %struct.archive_string, i32 }
%struct.archive_wstring = type { ptr, i64, i64 }
%struct.archive_string = type { ptr, i64, i64 }
%struct.ae_digest = type { [16 x i8], [20 x i8], [20 x i8], [32 x i8], [48 x i8], [64 x i8] }
%struct.archive_acl = type { i32, ptr, ptr, i32, ptr, ptr, i32 }

; Function Attrs: inlinehint nounwind willreturn memory(none) uwtable
define available_externally i64 @gnu_dev_makedev(i32 noundef %0, i32 noundef %1) #7 {
  %3 = alloca i32, align 4
  %4 = alloca i32, align 4
  %5 = alloca i64, align 8
  store i32 %0, ptr %3, align 4, !tbaa !32
  store i32 %1, ptr %4, align 4, !tbaa !32
  call void @llvm.lifetime.start.p0(i64 8, ptr %5) #13
  %6 = load i32, ptr %3, align 4, !tbaa !32
  %7 = and i32 %6, 4095
  %8 = zext i32 %7 to i64
  %9 = shl i64 %8, 8
  store i64 %9, ptr %5, align 8, !tbaa !27
  %10 = load i32, ptr %3, align 4, !tbaa !32
  %11 = and i32 %10, -4096
  %12 = zext i32 %11 to i64
  %13 = shl i64 %12, 32
  %14 = load i64, ptr %5, align 8, !tbaa !27
  %15 = or i64 %14, %13
  store i64 %15, ptr %5, align 8, !tbaa !27
  %16 = load i32, ptr %4, align 4, !tbaa !32
  %17 = and i32 %16, 255
  %18 = zext i32 %17 to i64
  %19 = shl i64 %18, 0
  %20 = load i64, ptr %5, align 8, !tbaa !27
  %21 = or i64 %20, %19
  store i64 %21, ptr %5, align 8, !tbaa !27
  %22 = load i32, ptr %4, align 4, !tbaa !32
  %23 = and i32 %22, -256
  %24 = zext i32 %23 to i64
  %25 = shl i64 %24, 12
  %26 = load i64, ptr %5, align 8, !tbaa !27
  %27 = or i64 %26, %25
  store i64 %27, ptr %5, align 8, !tbaa !27
  %28 = load i64, ptr %5, align 8, !tbaa !27
  call void @llvm.lifetime.end.p0(i64 8, ptr %5) #13
  ret i64 %28
}

; Function Attrs: nounwind uwtable
define dso_local i64 @archive_entry_dev(ptr noundef %0) #0 {
  %2 = alloca i64, align 8
  %3 = alloca ptr, align 8
  store ptr %0, ptr %3, align 8, !tbaa !4
  %4 = load ptr, ptr %3, align 8, !tbaa !4
  %5 = getelementptr inbounds nuw %struct.archive_entry, ptr %4, i32 0, i32 3
  %6 = getelementptr inbounds nuw %struct.aest, ptr %5, i32 0, i32 13
  %7 = load i32, ptr %6, align 8, !tbaa !62
  %8 = icmp ne i32 %7, 0
  br i1 %8, label %9, label %21

9:                                                ; preds = %1
  %10 = load ptr, ptr %3, align 8, !tbaa !4
  %11 = getelementptr inbounds nuw %struct.archive_entry, ptr %10, i32 0, i32 3
  %12 = getelementptr inbounds nuw %struct.aest, ptr %11, i32 0, i32 15
  %13 = load i64, ptr %12, align 8, !tbaa !63
  %14 = trunc i64 %13 to i32
  %15 = load ptr, ptr %3, align 8, !tbaa !4
  %16 = getelementptr inbounds nuw %struct.archive_entry, ptr %15, i32 0, i32 3
  %17 = getelementptr inbounds nuw %struct.aest, ptr %16, i32 0, i32 16
  %18 = load i64, ptr %17, align 8, !tbaa !64
  %19 = trunc i64 %18 to i32
  %20 = call i64 @gnu_dev_makedev(i32 noundef %14, i32 noundef %19) #17
  store i64 %20, ptr %2, align 8
  br label %26

21:                                               ; preds = %1
  %22 = load ptr, ptr %3, align 8, !tbaa !4
  %23 = getelementptr inbounds nuw %struct.archive_entry, ptr %22, i32 0, i32 3
  %24 = getelementptr inbounds nuw %struct.aest, ptr %23, i32 0, i32 14
  %25 = load i64, ptr %24, align 8, !tbaa !65
  store i64 %25, ptr %2, align 8
  br label %26

26:                                               ; preds = %21, %9
  %27 = load i64, ptr %2, align 8
  ret i64 %27
}