; Function Attrs: mustprogress nofree norecurse nosync nounwind willreturn memory(argmem: read) uwtable
define dso_local i64 @archive_entry_dev(ptr noundef readonly captures(none) %0) local_unnamed_addr #10 {
  %2 = getelementptr inbounds nuw i8, ptr %0, i64 128
  %3 = load i32, ptr %2, align 8, !tbaa !52
  %.not = icmp eq i32 %3, 0
  br i1 %.not, label %19, label %4

4:                                                ; preds = %1
  %5 = getelementptr inbounds nuw i8, ptr %0, i64 144
  %6 = load i64, ptr %5, align 8, !tbaa !53
  %7 = getelementptr inbounds nuw i8, ptr %0, i64 152
  %8 = load i64, ptr %7, align 8, !tbaa !54
  %9 = shl i64 %6, 8
  %10 = and i64 %9, 1048320
  %11 = shl i64 %6, 32
  %12 = and i64 %11, -17592186044416
  %13 = or disjoint i64 %12, %10
  %14 = and i64 %8, 255
  %15 = or disjoint i64 %13, %14
  %16 = shl i64 %8, 12
  %17 = and i64 %16, 17592184995840
  %18 = or disjoint i64 %15, %17
  br label %22

19:                                               ; preds = %1
  %20 = getelementptr inbounds nuw i8, ptr %0, i64 136
  %21 = load i64, ptr %20, align 8, !tbaa !55
  br label %22

22:                                               ; preds = %19, %4
  %.0 = phi i64 [ %18, %4 ], [ %21, %19 ]
  ret i64 %.0
}